ccopy_reg
_reconstructor
p0
(ccore.data
server_data
p1
c__builtin__
object
p2
Ntp3
Rp4
(dp5
S'server_dict'
p6
(dp7
S'DSLWP'
p8
(lp9
S'lilacsat.hit.edu.cn'
p10
aI9000
aI01
asS's8102'
p11
(lp12
S'47.93.0.158'
p13
aI9000
aI01
assb.